target datalayout = "e-m:e-p270:32:32-p271:32:32-p272:64:64-i64:64-i128:128-f80:128-n8:16:32:64-S128"
target triple = "x86_64-pc-linux-gnu"

%"class.llvm::IntrusiveRefCntPtr" = type { ptr }
%"class.std::error_code" = type { i32, ptr }
%"class.llvm::vfs::FileSystem.base" = type <{ %"class.llvm::RTTIExtends", %"class.llvm::ThreadSafeRefCountedBase" }>
%"class.llvm::RTTIExtends" = type { %"class.llvm::RTTIRoot" }
%"class.llvm::RTTIRoot" = type { ptr }
%"class.llvm::ThreadSafeRefCountedBase" = type { %"struct.std::atomic" }
%"struct.std::atomic" = type { %"struct.std::__atomic_base" }
%"struct.std::__atomic_base" = type { i32 }
%"class.llvm::vfs::OverlayFileSystem" = type { %"class.llvm::RTTIExtends.base", %"class.llvm::SmallVector" }
%"class.llvm::RTTIExtends.base" = type { %"class.llvm::vfs::FileSystem.base" }
%"class.llvm::SmallVector" = type { %"class.llvm::SmallVectorImpl.43", %"struct.llvm::SmallVectorStorage" }
%"class.llvm::SmallVectorImpl.43" = type { %"class.llvm::SmallVectorTemplateBase.44" }
%"class.llvm::SmallVectorTemplateBase.44" = type { %"class.llvm::SmallVectorTemplateCommon.45" }
%"class.llvm::SmallVectorTemplateCommon.45" = type { %"class.llvm::SmallVectorBase.46" }
%"class.llvm::SmallVectorBase.46" = type { ptr, i32, i32 }
%"struct.llvm::SmallVectorStorage" = type { [8 x i8] }

; Function Attrs: mustprogress nounwind uwtable
define linkonce_odr hidden void @_ZNSt10error_codeC2EiRKNSt3_V214error_categoryE(ptr noundef nonnull align 8 dereferenceable(16) %0, i32 noundef %1, ptr noundef nonnull align 8 dereferenceable(8) %2) unnamed_addr #0 comdat align 2 {
  %4 = alloca ptr, align 8
  %5 = alloca i32, align 4
  %6 = alloca ptr, align 8
  store ptr %0, ptr %4, align 8
  store i32 %1, ptr %5, align 4
  store ptr %2, ptr %6, align 8
  %7 = load ptr, ptr %4, align 8
  %8 = getelementptr inbounds nuw %"class.std::error_code", ptr %7, i32 0, i32 0
  %9 = load i32, ptr %5, align 4
  store i32 %9, ptr %8, align 8
  %10 = getelementptr inbounds nuw %"class.std::error_code", ptr %7, i32 0, i32 1
  %11 = load ptr, ptr %6, align 8
  store ptr %11, ptr %10, align 8
  ret void
}

; Function Attrs: mustprogress nounwind uwtable
define linkonce_odr hidden { i32, ptr } @_ZN4llvm15make_error_codeENS_4errcE(i32 noundef %0) #0 comdat {
  %2 = alloca %"class.std::error_code", align 8
  %3 = alloca i32, align 4
  store i32 %0, ptr %3, align 4
  %4 = load i32, ptr %3, align 4
  %5 = call noundef nonnull align 8 dereferenceable(8) ptr @_ZNSt3_V216generic_categoryEv() #14
  call void @_ZNSt10error_codeC2EiRKNSt3_V214error_categoryE(ptr noundef nonnull align 8 dereferenceable(16) %2, i32 noundef %4, ptr noundef nonnull align 8 dereferenceable(8) %5) #5
  %6 = load { i32, ptr }, ptr %2, align 8
  ret { i32, ptr } %6
}

; Function Attrs: mustprogress nounwind uwtable
define linkonce_odr hidden void @_ZNSt10error_codeC2IN4llvm4errcEvEET_(ptr noundef nonnull align 8 dereferenceable(16) %0, i32 noundef %1) unnamed_addr #0 comdat align 2 {
  %3 = alloca ptr, align 8
  %4 = alloca i32, align 4
  %5 = alloca %"class.std::error_code", align 8
  store ptr %0, ptr %3, align 8
  store i32 %1, ptr %4, align 4
  %6 = load ptr, ptr %3, align 8
  %7 = load i32, ptr %4, align 4
  %8 = call { i32, ptr } @_ZN4llvm15make_error_codeENS_4errcE(i32 noundef %7)
  %9 = getelementptr inbounds nuw { i32, ptr }, ptr %5, i32 0, i32 0
  %10 = extractvalue { i32, ptr } %8, 0
  store i32 %10, ptr %9, align 8
  %11 = getelementptr inbounds nuw { i32, ptr }, ptr %5, i32 0, i32 1
  %12 = extractvalue { i32, ptr } %8, 1
  store ptr %12, ptr %11, align 8
  call void @llvm.memcpy.p0.p0.i64(ptr align 8 %6, ptr align 8 %5, i64 16, i1 false)
  ret void
}

; Function Attrs: mustprogress nounwind uwtable
define linkonce_odr hidden noundef ptr @_ZNK4llvm18IntrusiveRefCntPtrINS_3vfs10FileSystemEEptEv(ptr noundef nonnull align 8 dereferenceable(8) %0) #0 comdat align 2 {
  %2 = alloca ptr, align 8
  store ptr %0, ptr %2, align 8
  %3 = load ptr, ptr %2, align 8
  %4 = getelementptr inbounds nuw %"class.llvm::IntrusiveRefCntPtr", ptr %3, i32 0, i32 0
  %5 = load ptr, ptr %4, align 8
  ret ptr %5
}

; Function Attrs: mustprogress nounwind uwtable
define linkonce_odr hidden noundef ptr @_ZN4llvm25SmallVectorTemplateCommonINS_18IntrusiveRefCntPtrINS_3vfs10FileSystemEEEvE3endEv(ptr noundef nonnull align 8 dereferenceable(16) %0) #0 comdat align 2 {
  %2 = alloca ptr, align 8
  store ptr %0, ptr %2, align 8
  %3 = load ptr, ptr %2, align 8
  %4 = call noundef ptr @_ZN4llvm25SmallVectorTemplateCommonINS_18IntrusiveRefCntPtrINS_3vfs10FileSystemEEEvE5beginEv(ptr noundef nonnull align 8 dereferenceable(16) %3)
  %5 = call noundef i64 @_ZNK4llvm15SmallVectorBaseIjE4sizeEv(ptr noundef nonnull align 8 dereferenceable(16) %3)
  %6 = getelementptr inbounds %"class.llvm::IntrusiveRefCntPtr", ptr %4, i64 %5
  ret ptr %6
}

; Function Attrs: mustprogress nounwind uwtable
define linkonce_odr hidden noundef ptr @_ZN4llvm25SmallVectorTemplateCommonINS_18IntrusiveRefCntPtrINS_3vfs10FileSystemEEEvE5beginEv(ptr noundef nonnull align 8 dereferenceable(16) %0) #0 comdat align 2 {
  %2 = alloca ptr, align 8
  store ptr %0, ptr %2, align 8
  %3 = load ptr, ptr %2, align 8
  %4 = getelementptr inbounds nuw %"class.llvm::SmallVectorBase.46", ptr %3, i32 0, i32 0
  %5 = load ptr, ptr %4, align 8
  ret ptr %5
}

; Function Attrs: mustprogress nounwind uwtable
define dso_local { i32, ptr } @_ZN4llvm3vfs17OverlayFileSystem11getRealPathERKNS_5TwineERNS_15SmallVectorImplIcEE(ptr noundef nonnull align 8 dereferenceable(40) %0, ptr noundef nonnull align 8 dereferenceable(34) %1, ptr noundef nonnull align 8 dereferenceable(24) %2) unnamed_addr #0 align 2 {
  %4 = alloca %"class.std::error_code", align 8
  %5 = alloca ptr, align 8
  %6 = alloca ptr, align 8
  %7 = alloca ptr, align 8
  %8 = alloca ptr, align 8
  %9 = alloca ptr, align 8
  %10 = alloca ptr, align 8
  %11 = alloca ptr, align 8
  store ptr %0, ptr %5, align 8
  store ptr %1, ptr %6, align 8
  store ptr %2, ptr %7, align 8
  %12 = load ptr, ptr %5, align 8
  %13 = getelementptr inbounds nuw %"class.llvm::vfs::OverlayFileSystem", ptr %12, i32 0, i32 1
  store ptr %13, ptr %8, align 8
  %14 = load ptr, ptr %8, align 8
  %15 = call noundef ptr @_ZN4llvm25SmallVectorTemplateCommonINS_18IntrusiveRefCntPtrINS_3vfs10FileSystemEEEvE5beginEv(ptr noundef nonnull align 8 dereferenceable(16) %14)
  store ptr %15, ptr %9, align 8
  %16 = load ptr, ptr %8, align 8
  %17 = call noundef ptr @_ZN4llvm25SmallVectorTemplateCommonINS_18IntrusiveRefCntPtrINS_3vfs10FileSystemEEEvE3endEv(ptr noundef nonnull align 8 dereferenceable(16) %16)
  store ptr %17, ptr %10, align 8
  br label %18

18:                                               ; preds = %45, %3
  %19 = load ptr, ptr %9, align 8
  %20 = load ptr, ptr %10, align 8
  %21 = icmp ne ptr %19, %20
  br i1 %21, label %22, label %48

22:                                               ; preds = %18
  %23 = load ptr, ptr %9, align 8
  store ptr %23, ptr %11, align 8
  %24 = load ptr, ptr %11, align 8
  %25 = call noundef ptr @_ZNK4llvm18IntrusiveRefCntPtrINS_3vfs10FileSystemEEptEv(ptr noundef nonnull align 8 dereferenceable(8) %24)
  %26 = load ptr, ptr %6, align 8
  %27 = load ptr, ptr %25, align 8
  %28 = getelementptr inbounds ptr, ptr %27, i64 11
  %29 = load ptr, ptr %28, align 8
  %30 = call noundef zeroext i1 %29(ptr noundef nonnull align 8 dereferenceable(12) %25, ptr noundef nonnull align 8 dereferenceable(34) %26)
  br i1 %30, label %31, label %44

31:                                               ; preds = %22
  %32 = load ptr, ptr %11, align 8
  %33 = call noundef ptr @_ZNK4llvm18IntrusiveRefCntPtrINS_3vfs10FileSystemEEptEv(ptr noundef nonnull align 8 dereferenceable(8) %32)
  %34 = load ptr, ptr %6, align 8
  %35 = load ptr, ptr %7, align 8
  %36 = load ptr, ptr %33, align 8
  %37 = getelementptr inbounds ptr, ptr %36, i64 10
  %38 = load ptr, ptr %37, align 8
  %39 = call { i32, ptr } %38(ptr noundef nonnull align 8 dereferenceable(12) %33, ptr noundef nonnull align 8 dereferenceable(34) %34, ptr noundef nonnull align 8 dereferenceable(24) %35)
  %40 = getelementptr inbounds nuw { i32, ptr }, ptr %4, i32 0, i32 0
  %41 = extractvalue { i32, ptr } %39, 0
  store i32 %41, ptr %40, align 8
  %42 = getelementptr inbounds nuw { i32, ptr }, ptr %4, i32 0, i32 1
  %43 = extractvalue { i32, ptr } %39, 1
  store ptr %43, ptr %42, align 8
  br label %49

44:                                               ; preds = %22
  br label %45

45:                                               ; preds = %44
  %46 = load ptr, ptr %9, align 8
  %47 = getelementptr inbounds %"class.llvm::IntrusiveRefCntPtr", ptr %46, i32 1
  store ptr %47, ptr %9, align 8
  br label %18

48:                                               ; preds = %18
  call void @_ZNSt10error_codeC2IN4llvm4errcEvEET_(ptr noundef nonnull align 8 dereferenceable(16) %4, i32 noundef 2) #5
  br label %49

49:                                               ; preds = %48, %31
  %50 = load { i32, ptr }, ptr %4, align 8
  ret { i32, ptr } %50
}