; Function Attrs: mustprogress nounwind uwtable
define dso_local { i32, ptr } @_ZN4llvm3vfs17OverlayFileSystem11getRealPathERKNS_5TwineERNS_15SmallVectorImplIcEE(ptr noundef nonnull align 8 dereferenceable(40) %0, ptr noundef nonnull align 8 dereferenceable(34) %1, ptr noundef nonnull align 8 dereferenceable(24) %2) unnamed_addr #0 align 2 {
  %4 = getelementptr inbounds nuw i8, ptr %0, i64 16
  %5 = load ptr, ptr %4, align 8
  %6 = tail call noundef i64 @_ZNK4llvm15SmallVectorBaseIjE4sizeEv(ptr noundef nonnull align 8 dereferenceable(16) %4) #27
  %7 = getelementptr inbounds %"class.llvm::IntrusiveRefCntPtr", ptr %5, i64 %6
  %.not13 = icmp eq i64 %6, 0
  br i1 %.not13, label %._crit_edge, label %.lr.ph

.lr.ph:                                           ; preds = %3, %21
  %.014 = phi ptr [ %22, %21 ], [ %5, %3 ]
  %8 = load ptr, ptr %.014, align 8
  %9 = load ptr, ptr %8, align 8
  %10 = getelementptr inbounds i8, ptr %9, i64 88
  %11 = load ptr, ptr %10, align 8
  %12 = tail call noundef zeroext i1 %11(ptr noundef nonnull align 8 dereferenceable(12) %8, ptr noundef nonnull align 8 dereferenceable(34) %1) #27
  br i1 %12, label %13, label %21

13:                                               ; preds = %.lr.ph
  %14 = load ptr, ptr %.014, align 8
  %15 = load ptr, ptr %14, align 8
  %16 = getelementptr inbounds i8, ptr %15, i64 80
  %17 = load ptr, ptr %16, align 8
  %18 = tail call { i32, ptr } %17(ptr noundef nonnull align 8 dereferenceable(12) %14, ptr noundef nonnull align 8 dereferenceable(34) %1, ptr noundef nonnull align 8 dereferenceable(24) %2) #27
  %19 = extractvalue { i32, ptr } %18, 0
  %20 = extractvalue { i32, ptr } %18, 1
  br label %24

21:                                               ; preds = %.lr.ph
  %22 = getelementptr inbounds i8, ptr %.014, i64 8
  %.not = icmp eq ptr %22, %7
  br i1 %.not, label %._crit_edge, label %.lr.ph

._crit_edge:                                      ; preds = %21, %3
  %23 = tail call noundef nonnull align 8 dereferenceable(8) ptr @_ZNSt3_V216generic_categoryEv() #29
  br label %24

24:                                               ; preds = %._crit_edge, %13
  %.sroa.3.0 = phi ptr [ %23, %._crit_edge ], [ %20, %13 ]
  %.sroa.0.0 = phi i32 [ 2, %._crit_edge ], [ %19, %13 ]
  %.fca.0.insert = insertvalue { i32, ptr } poison, i32 %.sroa.0.0, 0
  %.fca.1.insert = insertvalue { i32, ptr } %.fca.0.insert, ptr %.sroa.3.0, 1
  ret { i32, ptr } %.fca.1.insert
}